; Function Attrs: nofree nosync nounwind memory(readwrite, inaccessiblemem: none) uwtable
define internal fastcc i32 @Wlc_NtkNodeDeref_rec(ptr noundef readonly captures(none) %0, ptr noundef %1, ptr noundef readonly captures(none) %2) unnamed_addr #20 {
  %.val23 = load i16, ptr %1, align 8
  %4 = and i16 %.val23, 61
  %narrow.i.not = icmp eq i16 %4, 1
  br i1 %narrow.i.not, label %.critedge, label %5

5:                                                ; preds = %3
  %6 = getelementptr i8, ptr %0, i64 640
  %.val22 = load ptr, ptr %6, align 8, !tbaa !19
  %7 = ptrtoint ptr %1 to i64
  %8 = ptrtoint ptr %.val22 to i64
  %9 = sub i64 %7, %8
  %10 = sdiv exact i64 %9, 24
  %11 = trunc i64 %10 to i32
  %12 = and i32 %11, 31
  %13 = shl nuw i32 1, %12
  %14 = getelementptr inbounds nuw i8, ptr %2, i64 8
  %15 = load ptr, ptr %14, align 8, !tbaa !37
  %16 = ashr i32 %11, 5
  %17 = sext i32 %16 to i64
  %18 = getelementptr inbounds i32, ptr %15, i64 %17
  %19 = load i32, ptr %18, align 4, !tbaa !15
  %20 = or i32 %13, %19
  store i32 %20, ptr %18, align 4, !tbaa !15
  %21 = getelementptr i8, ptr %1, i64 4
  %.val2526 = load i32, ptr %21, align 4, !tbaa !39
  %22 = icmp sgt i32 %.val2526, 0
  br i1 %22, label %.lr.ph, label %.critedge

.lr.ph:                                           ; preds = %5
  %23 = getelementptr inbounds nuw i8, ptr %1, i64 16
  %24 = getelementptr i8, ptr %0, i64 808
  br label %25

25:                                               ; preds = %.lr.ph, %43
  %indvars.iv = phi i64 [ 0, %.lr.ph ], [ %indvars.iv.next, %43 ]
  %.val2529 = phi i32 [ %.val2526, %.lr.ph ], [ %.val25, %43 ]
  %.028 = phi i32 [ 1, %.lr.ph ], [ %.1, %43 ]
  %26 = icmp ugt i32 %.val2529, 2
  br i1 %26, label %Wlc_ObjHasArray.exit.thread.i.i, label %27

27:                                               ; preds = %25
  %28 = load i16, ptr %1, align 8
  %29 = and i16 %28, 63
  switch i16 %29, label %Wlc_ObjFaninId.exit [
    i16 6, label %Wlc_ObjHasArray.exit.thread.i.i
    i16 22, label %Wlc_ObjHasArray.exit.thread.i.i
  ]

Wlc_ObjHasArray.exit.thread.i.i:                  ; preds = %27, %27, %25
  %30 = load ptr, ptr %23, align 8, !tbaa !28
  br label %Wlc_ObjFaninId.exit

Wlc_ObjFaninId.exit:                              ; preds = %27, %Wlc_ObjHasArray.exit.thread.i.i
  %31 = phi ptr [ %30, %Wlc_ObjHasArray.exit.thread.i.i ], [ %23, %27 ]
  %32 = getelementptr inbounds nuw i32, ptr %31, i64 %indvars.iv
  %33 = load i32, ptr %32, align 4, !tbaa !15
  %.val24 = load ptr, ptr %24, align 8, !tbaa !14
  %34 = sext i32 %33 to i64
  %35 = getelementptr inbounds i32, ptr %.val24, i64 %34
  %36 = load i32, ptr %35, align 4, !tbaa !15
  %37 = add nsw i32 %36, -1
  store i32 %37, ptr %35, align 4, !tbaa !15
  %38 = icmp eq i32 %37, 0
  br i1 %38, label %39, label %43

39:                                               ; preds = %Wlc_ObjFaninId.exit
  %.val21 = load ptr, ptr %6, align 8, !tbaa !19
  %40 = getelementptr inbounds %struct.Wlc_Obj_t_, ptr %.val21, i64 %34
  %41 = tail call fastcc i32 @Wlc_NtkNodeDeref_rec(ptr noundef nonnull %0, ptr noundef %40, ptr noundef %2)
  %42 = add nsw i32 %41, %.028
  br label %43

43:                                               ; preds = %Wlc_ObjFaninId.exit, %39
  %.1 = phi i32 [ %42, %39 ], [ %.028, %Wlc_ObjFaninId.exit ]
  %indvars.iv.next = add nuw nsw i64 %indvars.iv, 1
  %.val25 = load i32, ptr %21, align 4, !tbaa !39
  %44 = sext i32 %.val25 to i64
  %45 = icmp slt i64 %indvars.iv.next, %44
  br i1 %45, label %25, label %.critedge, !llvm.loop !271

.critedge:                                        ; preds = %43, %5, %3
  %.019 = phi i32 [ 0, %3 ], [ 1, %5 ], [ %.1, %43 ]
  ret i32 %.019
}